; Function Attrs: mustprogress nofree norecurse nosync nounwind willreturn memory(argmem: write) uwtable
define void @_ZN2cv16structured_light17SinusoidalPattern6ParamsC2Ev(ptr noundef nonnull writeonly align 8 captures(none) dereferenceable(56) initializes((0, 26), (32, 56)) %0) unnamed_addr #3 align 2 {
  %2 = getelementptr inbounds nuw i8, ptr %0, i64 32
  tail call void @llvm.memset.p0.i64(ptr noundef nonnull align 8 dereferenceable(24) %2, i8 0, i64 24, i1 false)
  store i32 800, ptr %0, align 8, !tbaa !3
  %3 = getelementptr inbounds nuw i8, ptr %0, i64 4
  store i32 600, ptr %3, align 4, !tbaa !16
  %4 = getelementptr inbounds nuw i8, ptr %0, i64 8
  store i32 20, ptr %4, align 8, !tbaa !17
  %5 = getelementptr inbounds nuw i8, ptr %0, i64 12
  store float 0x4000C15240000000, ptr %5, align 4, !tbaa !18
  %6 = getelementptr inbounds nuw i8, ptr %0, i64 16
  store i32 2, ptr %6, align 8, !tbaa !19
  %7 = getelementptr inbounds nuw i8, ptr %0, i64 20
  store i32 56, ptr %7, align 4, !tbaa !20
  %8 = getelementptr inbounds nuw i8, ptr %0, i64 24
  store i8 0, ptr %8, align 8, !tbaa !21
  %9 = getelementptr inbounds nuw i8, ptr %0, i64 25
  store i8 0, ptr %9, align 1, !tbaa !22
  ret void
}